; Function Attrs: mustprogress nofree norecurse nosync nounwind memory(readwrite, inaccessiblemem: none) uwtable
define void @_ZN12colvarmodule10atom_group14read_positionsEv(ptr nocapture noundef nonnull readonly align 8 dereferenceable(1440) %0) local_unnamed_addr #14 align 2 {
  %2 = load ptr, ptr @_ZN12colvarmodule5proxyE, align 8
  %3 = getelementptr inbounds i8, ptr %2, i64 360
  br label %tailrecurse

tailrecurse:                                      ; preds = %._crit_edge, %1
  %.tr = phi ptr [ %0, %1 ], [ %20, %._crit_edge ]
  %4 = getelementptr inbounds i8, ptr %.tr, i64 628
  %5 = load i8, ptr %4, align 4
  %6 = trunc i8 %5 to i1
  br i1 %6, label %21, label %7

7:                                                ; preds = %tailrecurse
  %8 = getelementptr inbounds i8, ptr %.tr, i64 504
  %9 = load ptr, ptr %8, align 8
  %10 = getelementptr inbounds i8, ptr %.tr, i64 512
  %11 = load ptr, ptr %10, align 8
  %.not45 = icmp eq ptr %9, %11
  br i1 %.not45, label %._crit_edge, label %.lr.ph

.lr.ph:                                           ; preds = %7, %.lr.ph
  %.sroa.01.06 = phi ptr [ %17, %.lr.ph ], [ %9, %7 ]
  %12 = load i32, ptr %.sroa.01.06, align 8
  %13 = sext i32 %12 to i64
  %14 = load ptr, ptr %3, align 8, !noalias !101
  %15 = getelementptr inbounds %"class.colvarmodule::rvector", ptr %14, i64 %13
  %16 = getelementptr inbounds i8, ptr %.sroa.01.06, i64 24
  tail call void @llvm.memmove.p0.p0.i64(ptr noundef nonnull align 8 dereferenceable(24) %16, ptr noundef nonnull align 8 dereferenceable(24) %15, i64 24, i1 false)
  %17 = getelementptr inbounds i8, ptr %.sroa.01.06, i64 120
  %18 = load ptr, ptr %10, align 8
  %.not4 = icmp eq ptr %17, %18
  br i1 %.not4, label %._crit_edge, label %.lr.ph, !llvm.loop !104

._crit_edge:                                      ; preds = %.lr.ph, %7
  %19 = getelementptr inbounds i8, ptr %.tr, i64 1264
  %20 = load ptr, ptr %19, align 8
  %.not = icmp eq ptr %20, null
  br i1 %.not, label %21, label %tailrecurse

21:                                               ; preds = %tailrecurse, %._crit_edge
  ret void
}